(lp1
(dp2
S'tweet'
p3
S'<HANDLE> you are a piece of shit'
p4
sS'idx'
p5
I0
sS'sentiment'
p6
S'angry'
p7
sa(dp8
g3
S'I was ready to sleep at like 2pm what the fuck am I doing awake right now'
p9
sg5
I1
sg6
g7
sa(dp10
g3
S"Don't NOT_fuck NOT_with NOT_Boston. "
p11
sg5
I2
sg6
g7
sa(dp12
g3
S'730  irritated'
p13
sg5
I3
sg6
g7
sa(dp14
g3
S'Fuck a fake friend where your real friends at?'
p15
sg5
I4
sg6
g7
sa(dp16
g3
S"I'm mad I can't NOT_go NOT_out NOT_BUT NOT_I'M NOT_MORE NOT_CONCERNED NOT_ABOUT NOT_THE NOT_MOTHERFUCKING NOT_TERRORIST NOT_RUNNING NOT_AROUND NOT_GOD NOT_KNOWS NOT_WHERE"
p17
sg5
I5
sg6
g7
sa(dp18
g3
S'<HANDLE> bang bang #callingthatish'
p19
sg5
I6
sg6
g7
sa(dp20
g3
S"<HANDLE>: No one cares about MIT....bunch of smart fucks who decide to ply with a gun relax woah that's fucked up ..."
p21
sg5
I7
sg6
g7
sa(dp22
g3
S" <HANDLE>: Hold the fuck on , you forgive her about talking shit about your moms that easy ?! CRAZY , I'll kill a nigga !  !!!!!!!!"
p23
sg5
I8
sg6
g7
sa(dp24
g3
S'<HANDLE> <HANDLE> what time is the mount ball going to take place? Might have to come shit on you real quick'
p25
sg5
I9
sg6
g7
sa(dp26
g3
S"Very proud of <HANDLE>  <HANDLE> at E3 today! Y'all are amazing! :)"
p27
sg5
I10
sg6
S'calm'
p28
sa(dp29
g3
S'Thank you to all the first responders in Boston - hoping for all the best.'
p30
sg5
I11
sg6
g28
sa(dp31
g3
S'<HANDLE> awww there Youh GOtt Some LOOveh'
p32
sg5
I12
sg6
g28
sa(dp33
g3
S'Be safe everyone in  around Boston.'
p34
sg5
I13
sg6
g28
sa(dp35
g3
S'<HANDLE> are u ok?'
p36
sg5
I14
sg6
g28
sa(dp37
g3
S'RT for a Goodmorning Mention Anyone  \\U0001f618'
p38
sg5
I15
sg6
g28
sa(dp39
g3
S"MBTA Green Line closed. #PrayForBoston #BREAKING<HANDLE> that's how your arm will get better bro ... Hopefully everything goes well!"
p40
sg5
I16
sg6
g28
sa(dp41
g3
S'Getting calls and texts from Nikki as is she is running #thebest #loveher #soproud'
p42
sg5
I17
sg6
g28
sa(dp43
g3
S'Finally Peace :D #Relieved'
p44
sg5
I18
sg6
g28
sa(dp45
g3
S"RT <HANDLE>: Boston you're OUR home #BostonStrong "
p46
sg5
I19
sg6
g28
sa(dp47
g3
S"Can't NOT_sleep NOT_and NOT_every NOT_channel NOT_I NOT_turn NOT_to NOT_is NOT_marathon NOT_coverage NOT_trying NOT_to NOT_get NOT_away NOT_from NOT_it NOT_but NOT_can't  #GunnaHaveNightmares  someone txt or call"
p48
sg5
I20
sg6
S'fearful'
p49
sa(dp50
g3
S'Explosi\\xf3n en Marat\\xf3n de Boston Twitter / theoriginalwak: What the fuck just happened? ... '
p51
sg5
I21
sg6
g49
sa(dp52
g3
S'Stomachs in knots.  \\U0001f623'
p53
sg5
I22
sg6
g49
sa(dp54
g3
S'More photos to come . I am OK I made it out of the area. I was NEXT to the finish line'
p55
sg5
I23
sg6
g49
sa(dp56
g3
S"slumbo party because I'm actually afraid to go in my room alone #baby"
p57
sg5
I24
sg6
g49
sa(dp58
g3
S'Dream  nightmares  \\U0001f3b6'
p59
sg5
I25
sg6
g49
sa(dp60
g3
S'Is there really army tanks on the highway.... #shit'
p61
sg5
I26
sg6
g49
sa(dp62
g3
S'Fucking speachless and scared'
p63
sg5
I27
sg6
g49
sa(dp64
g3
S'That is some scary shit. Wtf is going on <HANDLE>'
p65
sg5
I28
sg6
g49
sa(dp66
g3
S'So what the hell is happening at plymouth Bank of America?'
p67
sg5
I29
sg6
g49
sa(dp68
g3
S'When will u stop being mean to me Martin  \\U0001f614  <HANDLE>: <HANDLE>  good for you. '
p69
sg5
I30
sg6
S'sad'
p70
sa(dp71
g3
S'My whole body hurts from today!'
p72
sg5
I31
sg6
g70
sa(dp73
g3
S"Looks like I'm ganna be all alone once again ."
p74
sg5
I32
sg6
g70
sa(dp75
g3
S" <HANDLE>: She's not NOT_mad, she's hurt. "
p76
sg5
I33
sg6
g70
sa(dp77
g3
S"To much happened yesterday to even comprehend #smh...Prayers \\U0001f64fgo out to family's who lost someone or injured in the attack"
p78
sg5
I34
sg6
g70
sa(dp79
g3
S'i am gonna miss my gym friends so much tbh there all nice and were awsomee :/ from period 2 gym class'
p80
sg5
I35
sg6
g70
sa(dp81
g3
S'I wanna see nashy  jazmine .. I have to visit them somehow..'
p82
sg5
I36
sg6
g70
sa(dp83
g3
S'What is wrong with ppl . I just dont NOT_get NOT_it'
p84
sg5
I37
sg6
g70
sa(dp85
g3
S"I feel like I'm just wasting my time"
p86
sg5
I38
sg6
g70
sa(dp87
g3
S"I just Wana tell you how I feel, tonight would've been perfect but I don't NOT_Wana NOT_ruin NOT_what NOT_we NOT_have NOT_going. Just tell me you want me. #ineedit"
p88
sg5
I39
sg6
g70
sa(dp89
g3
S'<HANDLE> aawhh!! Yes you better!!'
p90
sg5
I40
sg6
S'excited'
p91
sa(dp92
g3
S"She's back!!! (@ Gate C32) "
p93
sg5
I41
sg6
g91
sa(dp94
g3
S'<HANDLE> yes. Work Tuesday or Thursday 4-7 with me!!!'
p95
sg5
I42
sg6
g91
sa(dp96
g3
S"Applebee's for diner. Yum!"
p97
sg5
I43
sg6
g91
sa(dp98
g3
S'<HANDLE> <HANDLE> never forget that day or the Whittier game!'
p99
sg5
I44
sg6
g91
sa(dp100
g3
S'Oh hey MIKA! @ Royale Nightclub '
p101
sg5
I45
sg6
g91
sa(dp102
g3
S'21.5 fully loaded, shitting my pants!! '
p103
sg5
I46
sg6
g91
sa(dp104
g3
S"Getting really excited about college! I can't NOT_wait NOT_to NOT_start NOT_going NOT_shopping NOT_for NOT_it!"
p105
sg5
I47
sg6
g91
sa(dp106
g3
S"Chillin' with the #CramFam #Cram9 .........P told me to #Hashtag #War! (@ Fat Cat) "
p107
sg5
I48
sg6
g91
sa(dp108
g3
S"Blowing tht other phone up cause I'm bitch here :) I don't NOT_need NOT_u NOT_I'm NOT_living"
p109
sg5
I49
sg6
g91
sa(dp110
g3
S'Getting rid of some pent up anger. Doing demo work at an apartment in Cambridge #lego'
p111
sg5
I50
sg6
S'positive'
p112
sa(dp113
g3
S'<HANDLE> good morning :)'
p114
sg5
I51
sg6
g112
sa(dp115
g3
S'<HANDLE> bahahahaha'
p116
sg5
I52
sg6
g112
sa(dp117
g3
S'I need to get my tattoo finished soon \\U0001f611 \\U0001f633'
p118
sg5
I53
sg6
g112
sa(dp119
g3
S"<HANDLE> atleast you didn't NOT_burn NOT_the NOT_house NOT_down  \\U0001f44c"
p120
sg5
I54
sg6
g112
sa(dp121
g3
S'NYC .., ill be all over you from tomorrow through Tuesday. Tell me something GOOD..,, tell me that ya like me.'
p122
sg5
I55
sg6
g112
sa(dp123
g3
S'14 days ...21 crazyyy didnt even realize'
p124
sg5
I56
sg6
g112
sa(dp125
g3
S'Good morning  \\U0001f614'
p126
sg5
I57
sg6
g112
sa(dp127
g3
S"Vivienne Westwood or Vera Wang.....that's what I'm rocking on my wedding day"
p128
sg5
I58
sg6
g112
sa(dp129
g3
S'<HANDLE> kept tickling my head last night  \\U0001f602#edcshouldbeinteresting'
p130
sg5
I59
sg6
g112
sa(dp131
g3
S'<HANDLE> thats no lie . No lie, no lieeeyayelie lmao... Fail.'
p132
sg5
I60
sg6
S'negative'
p133
sa(dp134
g3
S'Exhausted  \\U0001f634'
p135
sg5
I61
sg6
g133
sa(dp136
g3
S'This weekend though...'
p137
sg5
I62
sg6
g133
sa(dp138
g3
S"Is that a question for u?  <HANDLE>: Why do people fall in love when they're always breaking up "
p139
sg5
I63
sg6
g133
sa(dp140
g3
S"<HANDLE>: I plan to see yo hoe ass over vacation if i ever find the time broo <HANDLE> Aight, AIght . I'm down with thattt ."
p141
sg5
I64
sg6
g133
sa(dp142
g3
S"The news is so slow I already know what's happened by following <HANDLE>"
p143
sg5
I65
sg6
g133
sa(dp144
g3
S'That was wired #hahahh'
p145
sg5
I66
sg6
g133
sa(dp146
g3
S"i need to learn the national anthem during senior season. You'd think by after all the soccer games I'd know it. <HANDLE>"
p147
sg5
I67
sg6
g133
sa(dp148
g3
S'The thought if school just....*shivers*'
p149
sg5
I68
sg6
g133
sa(dp150
g3
S"<HANDLE> I can't NOT_tell NOT_if NOT_Amanda NOT_Bynes NOT_or NOT_the NOT_BIEBZ NOT_crazier"
p151
sg5
I69
sg6
g133
sa(dp152
g3
S'One week later'
p153
sg5
I70
sg6
S'neutral'
p154
sa(dp155
g3
S'Shower'
p156
sg5
I71
sg6
g154
sa(dp157
g3
S'I want nachos'
p158
sg5
I72
sg6
g154
sa(dp159
g3
S'<HANDLE> nah washington'
p160
sg5
I73
sg6
g154
sa(dp161
g3
S"I'm at Braintree, MA (Braintree, MA) "
p162
sg5
I74
sg6
g154
sa(dp163
g3
S'#margaritas <HANDLE> @ Howling Wolf Taqueria '
p164
sg5
I75
sg6
g154
sa(dp165
g3
S'Being tourist-like (@ Boston Public Garden - <HANDLE> w/ 9 others) '
p166
sg5
I76
sg6
g154
sa(dp167
g3
S'<HANDLE> <HANDLE> <HANDLE> <HANDLE> <HANDLE> <HANDLE> <HANDLE> #GetADick'
p168
sg5
I77
sg6
g154
sa(dp169
g3
S"I'm at Starbucks (Boston, MA) "
p170
sg5
I78
sg6
g154
sa(dp171
g3
S'My man <HANDLE> turnin 21 today... U already kno what hashtag I gotta use for u buddy haha #liveitup'
p172
sg5
I79
sg6
g154
sa.